; Function Attrs: mustprogress nofree norecurse nosync nounwind willreturn memory(read, inaccessiblemem: none) uwtable
define hidden noundef zeroext i1 @_ZN5arith6solver11is_unit_varERNS0_24scoped_internalize_stateE(ptr nocapture noundef nonnull readnone align 8 dereferenceable(1144) %this, ptr nocapture noundef nonnull readonly align 8 dereferenceable(16) %st) local_unnamed_addr #8 align 2 {
entry:
  %m_st.i = getelementptr inbounds i8, ptr %st, i64 8
  %0 = load ptr, ptr %m_st.i, align 8
  %m_vars.i = getelementptr inbounds i8, ptr %0, i64 24
  %1 = load ptr, ptr %m_vars.i, align 8
  %cmp.i = icmp eq ptr %1, null
  br i1 %cmp.i, label %land.end, label %_ZNK6vectorIiLb0EjE4sizeEv.exit

_ZNK6vectorIiLb0EjE4sizeEv.exit:                  ; preds = %entry
  %arrayidx.i = getelementptr inbounds i8, ptr %1, i64 -4
  %2 = load i32, ptr %arrayidx.i, align 4
  %cmp = icmp eq i32 %2, 1
  br i1 %cmp, label %land.rhs, label %land.end

land.rhs:                                         ; preds = %_ZNK6vectorIiLb0EjE4sizeEv.exit
  %m_coeffs.i = getelementptr inbounds i8, ptr %0, i64 16
  %3 = load ptr, ptr %m_coeffs.i, align 8
  %m_kind.i.i.i.i.i = getelementptr inbounds i8, ptr %3, i64 4
  %bf.load.i.i.i.i.i = load i8, ptr %m_kind.i.i.i.i.i, align 4
  %bf.clear.i.i.i.i.i = and i8 %bf.load.i.i.i.i.i, 1
  %cmp.i.i.i.i.i = icmp eq i8 %bf.clear.i.i.i.i.i, 0
  %4 = load i32, ptr %3, align 8
  %cmp.i.i.i.i = icmp eq i32 %4, 1
  %5 = select i1 %cmp.i.i.i.i.i, i1 %cmp.i.i.i.i, i1 false
  br i1 %5, label %land.rhs.i.i, label %land.end

land.rhs.i.i:                                     ; preds = %land.rhs
  %m_den.i.i = getelementptr inbounds i8, ptr %3, i64 16
  %m_kind.i.i.i2.i.i = getelementptr inbounds i8, ptr %3, i64 20
  %bf.load.i.i.i3.i.i = load i8, ptr %m_kind.i.i.i2.i.i, align 4
  %bf.clear.i.i.i4.i.i = and i8 %bf.load.i.i.i3.i.i, 1
  %cmp.i.i.i5.i.i = icmp eq i8 %bf.clear.i.i.i4.i.i, 0
  %6 = load i32, ptr %m_den.i.i, align 8
  %cmp.i.i6.i.i = icmp eq i32 %6, 1
  %7 = select i1 %cmp.i.i.i5.i.i, i1 %cmp.i.i6.i.i, i1 false
  br label %land.end

land.end:                                         ; preds = %entry, %land.rhs.i.i, %land.rhs, %_ZNK6vectorIiLb0EjE4sizeEv.exit
  %8 = phi i1 [ false, %_ZNK6vectorIiLb0EjE4sizeEv.exit ], [ false, %land.rhs ], [ %7, %land.rhs.i.i ], [ false, %entry ]
  ret i1 %8
}